target datalayout = "e-m:e-p270:32:32-p271:32:32-p272:64:64-i64:64-i128:128-f80:128-n8:16:32:64-S128"
target triple = "x86_64-pc-linux-gnu"

%struct._address = type { i32, i32, ptr, ptr }
%struct._packet_info = type { ptr, ptr, i32, i32, %struct.nstime_t, %struct.nstime_t, %struct.nstime_t, i8, ptr, ptr, ptr, ptr, %struct._address, %struct._address, %struct._address, %struct._address, %struct._address, %struct._address, i32, ptr, i8, [3 x i8], %struct.anon, i32, i32, i32, i32, ptr, i8, ptr, ptr, i16, i16, i32, i32, i16, i32, i32, ptr, ptr, ptr, i8, i8, i16, i16, i16, i32, i16, i16, ptr, ptr, ptr, ptr, ptr, i32, i32 }
%struct.nstime_t = type { i64, i32 }
%struct.anon = type { i8, [3 x i8] }

@hf_dvbci_sas_app_id = internal global i32 0, align 4
@hf_dvbci_sas_sess_state = internal global i32 0, align 4
@hf_dvbci_sas_msg_nb = internal global i32 0, align 4
@hf_dvbci_sas_msg_len = internal global i32 0, align 4
@sas_msg_dissector_table = internal global ptr null, align 8
@data_handle = internal global ptr null, align 8
@.str.885 = private unnamed_addr constant [3 x i8] c"Ok\00", align 1
@.str.990 = private unnamed_addr constant [3 x i8] c": \00", align 1
@.str.1091 = private unnamed_addr constant [9 x i8] c"0x%016lx\00", align 1
@.str.1092 = private unnamed_addr constant [6 x i8] c"Error\00", align 1
@.str.1093 = private unnamed_addr constant [13 x i8] c"Message #%d \00", align 1

; Function Attrs: null_pointer_is_valid sspstrong uwtable
define internal void @dissect_dvbci_payload_sas(i32 noundef %0, i32 noundef %1, ptr noundef %2, i32 noundef %3, ptr noundef %4, ptr noundef %5, ptr noundef %6) #0 {
  %8 = alloca i32, align 4
  %9 = alloca i32, align 4
  %10 = alloca ptr, align 8
  %11 = alloca i32, align 4
  %12 = alloca ptr, align 8
  %13 = alloca ptr, align 8
  %14 = alloca ptr, align 8
  %15 = alloca [19 x i8], align 16
  %16 = alloca i8, align 1
  %17 = alloca ptr, align 8
  %18 = alloca i8, align 1
  %19 = alloca i16, align 2
  %20 = alloca ptr, align 8
  store i32 %0, ptr %8, align 4
  store i32 %1, ptr %9, align 4
  store ptr %2, ptr %10, align 8
  store i32 %3, ptr %11, align 4
  store ptr %4, ptr %12, align 8
  store ptr %5, ptr %13, align 8
  store ptr %6, ptr %14, align 8
  call void @llvm.lifetime.start.p0(i64 19, ptr %15) #11
  call void @llvm.lifetime.start.p0(i64 1, ptr %16) #11
  call void @llvm.lifetime.start.p0(i64 8, ptr %17) #11
  call void @llvm.lifetime.start.p0(i64 1, ptr %18) #11
  call void @llvm.lifetime.start.p0(i64 2, ptr %19) #11
  call void @llvm.lifetime.start.p0(i64 8, ptr %20) #11
  %21 = load i32, ptr %8, align 4
  switch i32 %21, label %123 [
    i32 10459648, label %22
    i32 10459649, label %22
    i32 10459655, label %74
  ]

22:                                               ; preds = %7, %7
  %23 = getelementptr inbounds [19 x i8], ptr %15, i64 0, i64 0
  %24 = load ptr, ptr %10, align 8
  %25 = load i32, ptr %11, align 4
  %26 = call i64 @tvb_get_ntoh64(ptr noundef %24, i32 noundef %25)
  %27 = call i32 (ptr, i64, i32, i64, ptr, ...) @__snprintf_chk(ptr noundef %23, i64 noundef 19, i32 noundef 2, i64 noundef 19, ptr noundef @.str.1091, i64 noundef %26)
  %28 = load ptr, ptr %13, align 8
  %29 = getelementptr inbounds nuw %struct._packet_info, ptr %28, i32 0, i32 1
  %30 = load ptr, ptr %29, align 8
  %31 = getelementptr inbounds [19 x i8], ptr %15, i64 0, i64 0
  call void @col_append_sep_str(ptr noundef %30, i32 noundef 25, ptr noundef @.str.990, ptr noundef %31)
  %32 = load ptr, ptr %14, align 8
  %33 = load i32, ptr @hf_dvbci_sas_app_id, align 4
  %34 = load ptr, ptr %10, align 8
  %35 = load i32, ptr %11, align 4
  %36 = call ptr @proto_tree_add_item(ptr noundef %32, i32 noundef %33, ptr noundef %34, i32 noundef %35, i32 noundef 8, i32 noundef 0)
  %37 = load i32, ptr %11, align 4
  %38 = add i32 %37, 8
  store i32 %38, ptr %11, align 4
  %39 = load i32, ptr %8, align 4
  %40 = icmp eq i32 %39, 10459649
  br i1 %40, label %41, label %73

41:                                               ; preds = %22
  %42 = load ptr, ptr %10, align 8
  %43 = load i32, ptr %11, align 4
  %44 = call zeroext i8 @tvb_get_uint8(ptr noundef %42, i32 noundef %43)
  store i8 %44, ptr %16, align 1
  %45 = load ptr, ptr %13, align 8
  %46 = getelementptr inbounds nuw %struct._packet_info, ptr %45, i32 0, i32 1
  %47 = load ptr, ptr %46, align 8
  %48 = load i8, ptr %16, align 1
  %49 = zext i8 %48 to i32
  %50 = icmp eq i32 %49, 0
  %51 = select i1 %50, ptr @.str.885, ptr @.str.1092
  call void @col_append_sep_str(ptr noundef %47, i32 noundef 25, ptr noundef null, ptr noundef %51)
  %52 = load ptr, ptr %14, align 8
  %53 = load i32, ptr @hf_dvbci_sas_sess_state, align 4
  %54 = load ptr, ptr %10, align 8
  %55 = load i32, ptr %11, align 4
  %56 = call ptr @proto_tree_add_item(ptr noundef %52, i32 noundef %53, ptr noundef %54, i32 noundef %55, i32 noundef 1, i32 noundef 0)
  %57 = load ptr, ptr %12, align 8
  %58 = icmp ne ptr %57, null
  br i1 %58, label %60, label %59

59:                                               ; preds = %41
  br label %124

60:                                               ; preds = %41
  %61 = load i8, ptr %16, align 1
  %62 = zext i8 %61 to i32
  %63 = icmp eq i32 %62, 0
  br i1 %63, label %64, label %70

64:                                               ; preds = %60
  %65 = load ptr, ptr @sas_msg_dissector_table, align 8
  %66 = getelementptr inbounds [19 x i8], ptr %15, i64 0, i64 0
  %67 = call ptr @dissector_get_string_handle(ptr noundef %65, ptr noundef %66)
  store ptr %67, ptr %17, align 8
  %68 = load ptr, ptr %12, align 8
  %69 = load ptr, ptr %17, align 8
  call void @conversation_set_dissector(ptr noundef %68, ptr noundef %69)
  br label %72

70:                                               ; preds = %60
  %71 = load ptr, ptr %12, align 8
  call void @conversation_set_dissector(ptr noundef %71, ptr noundef null)
  br label %72

72:                                               ; preds = %70, %64
  br label %73

73:                                               ; preds = %72, %22
  br label %124

74:                                               ; preds = %7
  %75 = load ptr, ptr %10, align 8
  %76 = load i32, ptr %11, align 4
  %77 = call zeroext i8 @tvb_get_uint8(ptr noundef %75, i32 noundef %76)
  store i8 %77, ptr %18, align 1
  %78 = load ptr, ptr %13, align 8
  %79 = getelementptr inbounds nuw %struct._packet_info, ptr %78, i32 0, i32 1
  %80 = load ptr, ptr %79, align 8
  %81 = load i8, ptr %18, align 1
  %82 = zext i8 %81 to i32
  call void (ptr, i32, ptr, ptr, ...) @col_append_sep_fstr(ptr noundef %80, i32 noundef 25, ptr noundef @.str.990, ptr noundef @.str.1093, i32 noundef %82)
  %83 = load ptr, ptr %14, align 8
  %84 = load i32, ptr @hf_dvbci_sas_msg_nb, align 4
  %85 = load ptr, ptr %10, align 8
  %86 = load i32, ptr %11, align 4
  %87 = call ptr @proto_tree_add_item(ptr noundef %83, i32 noundef %84, ptr noundef %85, i32 noundef %86, i32 noundef 1, i32 noundef 0)
  %88 = load i32, ptr %11, align 4
  %89 = add i32 %88, 1
  store i32 %89, ptr %11, align 4
  %90 = load ptr, ptr %10, align 8
  %91 = load i32, ptr %11, align 4
  %92 = call zeroext i16 @tvb_get_ntohs(ptr noundef %90, i32 noundef %91)
  store i16 %92, ptr %19, align 2
  %93 = load ptr, ptr %14, align 8
  %94 = load i32, ptr @hf_dvbci_sas_msg_len, align 4
  %95 = load ptr, ptr %10, align 8
  %96 = load i32, ptr %11, align 4
  %97 = call ptr @proto_tree_add_item(ptr noundef %93, i32 noundef %94, ptr noundef %95, i32 noundef %96, i32 noundef 2, i32 noundef 0)
  %98 = load i32, ptr %11, align 4
  %99 = add i32 %98, 2
  store i32 %99, ptr %11, align 4
  %100 = load ptr, ptr %10, align 8
  %101 = load i32, ptr %11, align 4
  %102 = load i16, ptr %19, align 2
  %103 = zext i16 %102 to i32
  %104 = call ptr @tvb_new_subset_length(ptr noundef %100, i32 noundef %101, i32 noundef %103)
  store ptr %104, ptr %20, align 8
  %105 = load ptr, ptr %12, align 8
  %106 = icmp ne ptr %105, null
  br i1 %106, label %107, label %110

107:                                              ; preds = %74
  %108 = load ptr, ptr %12, align 8
  %109 = call ptr @conversation_get_dissector(ptr noundef %108, i32 noundef 0)
  br label %111

110:                                              ; preds = %74
  br label %111

111:                                              ; preds = %110, %107
  %112 = phi ptr [ %109, %107 ], [ null, %110 ]
  store ptr %112, ptr %17, align 8
  %113 = load ptr, ptr %17, align 8
  %114 = icmp eq ptr %113, null
  br i1 %114, label %115, label %117

115:                                              ; preds = %111
  %116 = load ptr, ptr @data_handle, align 8
  store ptr %116, ptr %17, align 8
  br label %117

117:                                              ; preds = %115, %111
  %118 = load ptr, ptr %17, align 8
  %119 = load ptr, ptr %20, align 8
  %120 = load ptr, ptr %13, align 8
  %121 = load ptr, ptr %14, align 8
  %122 = call i32 @call_dissector(ptr noundef %118, ptr noundef %119, ptr noundef %120, ptr noundef %121)
  br label %124

123:                                              ; preds = %7
  br label %124

124:                                              ; preds = %123, %117, %73, %59
  call void @llvm.lifetime.end.p0(i64 8, ptr %20) #11
  call void @llvm.lifetime.end.p0(i64 2, ptr %19) #11
  call void @llvm.lifetime.end.p0(i64 1, ptr %18) #11
  call void @llvm.lifetime.end.p0(i64 8, ptr %17) #11
  call void @llvm.lifetime.end.p0(i64 1, ptr %16) #11
  call void @llvm.lifetime.end.p0(i64 19, ptr %15) #11
  ret void
}