; Function Attrs: null_pointer_is_valid sspstrong uwtable
define internal void @dissect_dvbci_payload_sas(i32 noundef %0, i32 %1, ptr noundef %2, i32 noundef %3, ptr noundef %4, ptr noundef %5, ptr noundef %6) #1 {
  %8 = alloca [19 x i8], align 16
  call void @llvm.lifetime.start.p0(i64 19, ptr nonnull %8) #16
  switch i32 %0, label %51 [
    i32 10459648, label %9
    i32 10459649, label %9
    i32 10459655, label %30
  ]

9:                                                ; preds = %7, %7
  %10 = tail call i64 @tvb_get_ntoh64(ptr noundef %2, i32 noundef %3)
  %11 = call i32 (ptr, i64, i32, i64, ptr, ...) @__snprintf_chk(ptr noundef nonnull %8, i64 noundef 19, i32 noundef 2, i64 noundef 19, ptr noundef nonnull @.str.1091, i64 noundef %10)
  %12 = getelementptr inbounds nuw i8, ptr %5, i64 8
  %13 = load ptr, ptr %12, align 8
  call void @col_append_sep_str(ptr noundef %13, i32 noundef 25, ptr noundef nonnull @.str.990, ptr noundef nonnull %8)
  %14 = load i32, ptr @hf_dvbci_sas_app_id, align 4
  %15 = call ptr @proto_tree_add_item(ptr noundef %6, i32 noundef %14, ptr noundef %2, i32 noundef %3, i32 noundef 8, i32 noundef 0)
  %16 = icmp eq i32 %0, 10459649
  br i1 %16, label %17, label %51

17:                                               ; preds = %9
  %18 = add i32 %3, 8
  %19 = call zeroext i8 @tvb_get_uint8(ptr noundef %2, i32 noundef %18)
  %20 = load ptr, ptr %12, align 8
  %21 = icmp eq i8 %19, 0
  %22 = select i1 %21, ptr @.str.885, ptr @.str.1092
  call void @col_append_sep_str(ptr noundef %20, i32 noundef 25, ptr noundef null, ptr noundef nonnull %22)
  %23 = load i32, ptr @hf_dvbci_sas_sess_state, align 4
  %24 = call ptr @proto_tree_add_item(ptr noundef %6, i32 noundef %23, ptr noundef %2, i32 noundef %18, i32 noundef 1, i32 noundef 0)
  %.not46 = icmp eq ptr %4, null
  br i1 %.not46, label %51, label %25

25:                                               ; preds = %17
  br i1 %21, label %26, label %29

26:                                               ; preds = %25
  %27 = load ptr, ptr @sas_msg_dissector_table, align 8
  %28 = call ptr @dissector_get_string_handle(ptr noundef %27, ptr noundef nonnull %8)
  call void @conversation_set_dissector(ptr noundef nonnull %4, ptr noundef %28)
  br label %51

29:                                               ; preds = %25
  call void @conversation_set_dissector(ptr noundef nonnull %4, ptr noundef null)
  br label %51

30:                                               ; preds = %7
  %31 = tail call zeroext i8 @tvb_get_uint8(ptr noundef %2, i32 noundef %3)
  %32 = getelementptr inbounds nuw i8, ptr %5, i64 8
  %33 = load ptr, ptr %32, align 8
  %34 = zext i8 %31 to i32
  tail call void (ptr, i32, ptr, ptr, ...) @col_append_sep_fstr(ptr noundef %33, i32 noundef 25, ptr noundef nonnull @.str.990, ptr noundef nonnull @.str.1093, i32 noundef %34)
  %35 = load i32, ptr @hf_dvbci_sas_msg_nb, align 4
  %36 = tail call ptr @proto_tree_add_item(ptr noundef %6, i32 noundef %35, ptr noundef %2, i32 noundef %3, i32 noundef 1, i32 noundef 0)
  %37 = add i32 %3, 1
  %38 = tail call zeroext i16 @tvb_get_ntohs(ptr noundef %2, i32 noundef %37)
  %39 = load i32, ptr @hf_dvbci_sas_msg_len, align 4
  %40 = tail call ptr @proto_tree_add_item(ptr noundef %6, i32 noundef %39, ptr noundef %2, i32 noundef %37, i32 noundef 2, i32 noundef 0)
  %41 = add i32 %3, 3
  %42 = zext i16 %38 to i32
  %43 = tail call ptr @tvb_new_subset_length(ptr noundef %2, i32 noundef %41, i32 noundef %42)
  %.not = icmp eq ptr %4, null
  br i1 %.not, label %46, label %44

44:                                               ; preds = %30
  %45 = tail call ptr @conversation_get_dissector(ptr noundef nonnull %4, i32 noundef 0)
  br label %46

46:                                               ; preds = %30, %44
  %47 = phi ptr [ %45, %44 ], [ null, %30 ]
  %48 = icmp eq ptr %47, null
  %49 = load ptr, ptr @data_handle, align 8
  %spec.select = select i1 %48, ptr %49, ptr %47
  %50 = tail call i32 @call_dissector(ptr noundef %spec.select, ptr noundef %43, ptr noundef %5, ptr noundef %6)
  br label %51

51:                                               ; preds = %7, %9, %29, %26, %17, %46
  call void @llvm.lifetime.end.p0(i64 19, ptr nonnull %8) #16
  ret void
}